target datalayout = "e-m:e-p270:32:32-p271:32:32-p272:64:64-i64:64-i128:128-f80:128-n8:16:32:64-S128"
target triple = "x86_64-pc-linux-gnu"

%struct.notes_rewrite_cfg = type { ptr, ptr, i32, ptr, ptr, i32, i32 }

@.str.9 = private unnamed_addr constant [14 x i8] c"cat_sort_uniq\00", align 1
@.str.13 = private unnamed_addr constant [1 x i8] zeroinitializer, align 1
@git_gettext_enabled = external global i32, align 4
@.str.14 = private unnamed_addr constant [10 x i8] c"overwrite\00", align 1
@.str.15 = private unnamed_addr constant [7 x i8] c"ignore\00", align 1
@.str.16 = private unnamed_addr constant [12 x i8] c"concatenate\00", align 1
@.str.17 = private unnamed_addr constant [15 x i8] c"notes.rewrite.\00", align 1
@.str.18 = private unnamed_addr constant [18 x i8] c"notes.rewritemode\00", align 1
@.str.19 = private unnamed_addr constant [34 x i8] c"Bad notes.rewriteMode value: '%s'\00", align 1
@.str.20 = private unnamed_addr constant [17 x i8] c"notes.rewriteref\00", align 1
@.str.21 = private unnamed_addr constant [12 x i8] c"refs/notes/\00", align 1
@.str.22 = private unnamed_addr constant [57 x i8] c"Refusing to rewrite notes in %s (outside of refs/notes/)\00", align 1

; Function Attrs: inlinehint nounwind uwtable
define internal ptr @_(ptr noundef %0) #4 {
  %2 = alloca ptr, align 8
  %3 = alloca ptr, align 8
  store ptr %0, ptr %3, align 8, !tbaa !13
  %4 = load ptr, ptr %3, align 8, !tbaa !13
  %5 = load i8, ptr %4, align 1, !tbaa !28
  %6 = icmp ne i8 %5, 0
  br i1 %6, label %8, label %7

7:                                                ; preds = %1
  store ptr @.str.13, ptr %2, align 8
  br label %16

8:                                                ; preds = %1
  %9 = load i32, ptr @git_gettext_enabled, align 4, !tbaa !33
  %10 = icmp ne i32 %9, 0
  br i1 %10, label %13, label %11

11:                                               ; preds = %8
  %12 = load ptr, ptr %3, align 8, !tbaa !13
  store ptr %12, ptr %2, align 8
  br label %16

13:                                               ; preds = %8
  %14 = load ptr, ptr %3, align 8, !tbaa !13
  %15 = call ptr @dcgettext(ptr noundef null, ptr noundef %14, i32 noundef 5) #8
  store ptr %15, ptr %2, align 8
  br label %16

16:                                               ; preds = %13, %11, %7
  %17 = load ptr, ptr %2, align 8
  ret ptr %17
}

; Function Attrs: nounwind uwtable
define internal ptr @parse_combine_notes_fn(ptr noundef %0) #0 {
  %2 = alloca ptr, align 8
  %3 = alloca ptr, align 8
  store ptr %0, ptr %3, align 8, !tbaa !13
  %4 = load ptr, ptr %3, align 8, !tbaa !13
  %5 = call i32 @strcasecmp(ptr noundef %4, ptr noundef @.str.14) #10
  %6 = icmp ne i32 %5, 0
  br i1 %6, label %8, label %7

7:                                                ; preds = %1
  store ptr @combine_notes_overwrite, ptr %2, align 8
  br label %24

8:                                                ; preds = %1
  %9 = load ptr, ptr %3, align 8, !tbaa !13
  %10 = call i32 @strcasecmp(ptr noundef %9, ptr noundef @.str.15) #10
  %11 = icmp ne i32 %10, 0
  br i1 %11, label %13, label %12

12:                                               ; preds = %8
  store ptr @combine_notes_ignore, ptr %2, align 8
  br label %24

13:                                               ; preds = %8
  %14 = load ptr, ptr %3, align 8, !tbaa !13
  %15 = call i32 @strcasecmp(ptr noundef %14, ptr noundef @.str.16) #10
  %16 = icmp ne i32 %15, 0
  br i1 %16, label %18, label %17

17:                                               ; preds = %13
  store ptr @combine_notes_concatenate, ptr %2, align 8
  br label %24

18:                                               ; preds = %13
  %19 = load ptr, ptr %3, align 8, !tbaa !13
  %20 = call i32 @strcasecmp(ptr noundef %19, ptr noundef @.str.9) #10
  %21 = icmp ne i32 %20, 0
  br i1 %21, label %23, label %22

22:                                               ; preds = %18
  store ptr @combine_notes_cat_sort_uniq, ptr %2, align 8
  br label %24

23:                                               ; preds = %18
  store ptr null, ptr %2, align 8
  br label %24

24:                                               ; preds = %23, %22, %17, %12, %7
  %25 = load ptr, ptr %2, align 8
  ret ptr %25
}

; Function Attrs: inlinehint nounwind uwtable
define internal i32 @const_error() #4 {
  ret i32 -1
}

; Function Attrs: nounwind uwtable
define internal i32 @notes_rewrite_config(ptr noundef %0, ptr noundef %1, ptr noundef %2, ptr noundef %3) #0 {
  %5 = alloca i32, align 4
  %6 = alloca ptr, align 8
  %7 = alloca ptr, align 8
  %8 = alloca ptr, align 8
  %9 = alloca ptr, align 8
  %10 = alloca ptr, align 8
  %11 = alloca i32, align 4
  store ptr %0, ptr %6, align 8, !tbaa !13
  store ptr %1, ptr %7, align 8, !tbaa !13
  store ptr %2, ptr %8, align 8, !tbaa !52
  store ptr %3, ptr %9, align 8, !tbaa !36
  call void @llvm.lifetime.start.p0(i64 8, ptr %10) #8
  %12 = load ptr, ptr %9, align 8, !tbaa !36
  store ptr %12, ptr %10, align 8, !tbaa !37
  %13 = load ptr, ptr %6, align 8, !tbaa !13
  %14 = call i32 @starts_with(ptr noundef %13, ptr noundef @.str.17)
  %15 = icmp ne i32 %14, 0
  br i1 %15, label %16, label %30

16:                                               ; preds = %4
  %17 = load ptr, ptr %6, align 8, !tbaa !13
  %18 = getelementptr inbounds i8, ptr %17, i64 14
  %19 = load ptr, ptr %10, align 8, !tbaa !37
  %20 = getelementptr inbounds nuw %struct.notes_rewrite_cfg, ptr %19, i32 0, i32 1
  %21 = load ptr, ptr %20, align 8, !tbaa !39
  %22 = call i32 @strcmp(ptr noundef %18, ptr noundef %21) #10
  %23 = icmp ne i32 %22, 0
  br i1 %23, label %30, label %24

24:                                               ; preds = %16
  %25 = load ptr, ptr %6, align 8, !tbaa !13
  %26 = load ptr, ptr %7, align 8, !tbaa !13
  %27 = call i32 @git_config_bool(ptr noundef %25, ptr noundef %26)
  %28 = load ptr, ptr %10, align 8, !tbaa !37
  %29 = getelementptr inbounds nuw %struct.notes_rewrite_cfg, ptr %28, i32 0, i32 2
  store i32 %27, ptr %29, align 8, !tbaa !43
  store i32 0, ptr %5, align 4
  store i32 1, ptr %11, align 4
  br label %93

30:                                               ; preds = %16, %4
  %31 = load ptr, ptr %10, align 8, !tbaa !37
  %32 = getelementptr inbounds nuw %struct.notes_rewrite_cfg, ptr %31, i32 0, i32 6
  %33 = load i32, ptr %32, align 4, !tbaa !47
  %34 = icmp ne i32 %33, 0
  br i1 %34, label %61, label %35

35:                                               ; preds = %30
  %36 = load ptr, ptr %6, align 8, !tbaa !13
  %37 = call i32 @strcmp(ptr noundef %36, ptr noundef @.str.18) #10
  %38 = icmp ne i32 %37, 0
  br i1 %38, label %61, label %39

39:                                               ; preds = %35
  %40 = load ptr, ptr %7, align 8, !tbaa !13
  %41 = icmp ne ptr %40, null
  br i1 %41, label %46, label %42

42:                                               ; preds = %39
  %43 = load ptr, ptr %6, align 8, !tbaa !13
  %44 = call i32 @config_error_nonbool(ptr noundef %43)
  %45 = call i32 @const_error()
  store i32 %45, ptr %5, align 4
  store i32 1, ptr %11, align 4
  br label %93

46:                                               ; preds = %39
  %47 = load ptr, ptr %7, align 8, !tbaa !13
  %48 = call ptr @parse_combine_notes_fn(ptr noundef %47)
  %49 = load ptr, ptr %10, align 8, !tbaa !37
  %50 = getelementptr inbounds nuw %struct.notes_rewrite_cfg, ptr %49, i32 0, i32 3
  store ptr %48, ptr %50, align 8, !tbaa !44
  %51 = load ptr, ptr %10, align 8, !tbaa !37
  %52 = getelementptr inbounds nuw %struct.notes_rewrite_cfg, ptr %51, i32 0, i32 3
  %53 = load ptr, ptr %52, align 8, !tbaa !44
  %54 = icmp ne ptr %53, null
  br i1 %54, label %60, label %55

55:                                               ; preds = %46
  %56 = call ptr @_(ptr noundef @.str.19)
  %57 = load ptr, ptr %7, align 8, !tbaa !13
  %58 = call i32 (ptr, ...) @error(ptr noundef %56, ptr noundef %57)
  %59 = call i32 @const_error()
  store i32 1, ptr %5, align 4
  store i32 1, ptr %11, align 4
  br label %93

60:                                               ; preds = %46
  store i32 0, ptr %5, align 4
  store i32 1, ptr %11, align 4
  br label %93

61:                                               ; preds = %35, %30
  %62 = load ptr, ptr %10, align 8, !tbaa !37
  %63 = getelementptr inbounds nuw %struct.notes_rewrite_cfg, ptr %62, i32 0, i32 5
  %64 = load i32, ptr %63, align 8, !tbaa !46
  %65 = icmp ne i32 %64, 0
  br i1 %65, label %90, label %66

66:                                               ; preds = %61
  %67 = load ptr, ptr %6, align 8, !tbaa !13
  %68 = call i32 @strcmp(ptr noundef %67, ptr noundef @.str.20) #10
  %69 = icmp ne i32 %68, 0
  br i1 %69, label %90, label %70

70:                                               ; preds = %66
  %71 = load ptr, ptr %7, align 8, !tbaa !13
  %72 = icmp ne ptr %71, null
  br i1 %72, label %77, label %73

73:                                               ; preds = %70
  %74 = load ptr, ptr %6, align 8, !tbaa !13
  %75 = call i32 @config_error_nonbool(ptr noundef %74)
  %76 = call i32 @const_error()
  store i32 %76, ptr %5, align 4
  store i32 1, ptr %11, align 4
  br label %93

77:                                               ; preds = %70
  %78 = load ptr, ptr %7, align 8, !tbaa !13
  %79 = call i32 @starts_with(ptr noundef %78, ptr noundef @.str.21)
  %80 = icmp ne i32 %79, 0
  br i1 %80, label %81, label %86

81:                                               ; preds = %77
  %82 = load ptr, ptr %10, align 8, !tbaa !37
  %83 = getelementptr inbounds nuw %struct.notes_rewrite_cfg, ptr %82, i32 0, i32 4
  %84 = load ptr, ptr %83, align 8, !tbaa !45
  %85 = load ptr, ptr %7, align 8, !tbaa !13
  call void @string_list_add_refs_by_glob(ptr noundef %84, ptr noundef %85)
  br label %89

86:                                               ; preds = %77
  %87 = call ptr @_(ptr noundef @.str.22)
  %88 = load ptr, ptr %7, align 8, !tbaa !13
  call void (ptr, ...) @warning(ptr noundef %87, ptr noundef %88)
  br label %89

89:                                               ; preds = %86, %81
  store i32 0, ptr %5, align 4
  store i32 1, ptr %11, align 4
  br label %93

90:                                               ; preds = %66, %61
  br label %91

91:                                               ; preds = %90
  br label %92

92:                                               ; preds = %91
  store i32 0, ptr %5, align 4
  store i32 1, ptr %11, align 4
  br label %93

93:                                               ; preds = %92, %89, %73, %60, %55, %42, %24
  call void @llvm.lifetime.end.p0(i64 8, ptr %10) #8
  %94 = load i32, ptr %5, align 4
  ret i32 %94
}