; Function Attrs: nounwind uwtable
define internal range(i32 -1, 2) i32 @notes_rewrite_config(ptr noundef %0, ptr noundef %1, ptr readnone captures(none) %2, ptr noundef captures(none) %3) #0 {
  %5 = tail call i32 @starts_with(ptr noundef %0, ptr noundef nonnull @.str.17) #12
  %.not = icmp eq i32 %5, 0
  br i1 %.not, label %14, label %6

6:                                                ; preds = %4
  %7 = getelementptr inbounds nuw i8, ptr %0, i64 14
  %8 = getelementptr inbounds nuw i8, ptr %3, i64 8
  %9 = load ptr, ptr %8, align 8, !tbaa !27
  %10 = tail call i32 @strcmp(ptr noundef nonnull dereferenceable(1) %7, ptr noundef nonnull dereferenceable(1) %9) #14
  %.not24 = icmp eq i32 %10, 0
  br i1 %.not24, label %11, label %14

11:                                               ; preds = %6
  %12 = tail call i32 @git_config_bool(ptr noundef nonnull %0, ptr noundef %1) #12
  %13 = getelementptr inbounds nuw i8, ptr %3, i64 16
  store i32 %12, ptr %13, align 8, !tbaa !31
  br label %54

14:                                               ; preds = %6, %4
  %15 = getelementptr inbounds nuw i8, ptr %3, i64 44
  %16 = load i32, ptr %15, align 4, !tbaa !35
  %.not25 = icmp eq i32 %16, 0
  br i1 %.not25, label %17, label %37

17:                                               ; preds = %14
  %18 = tail call i32 @strcmp(ptr noundef nonnull dereferenceable(1) %0, ptr noundef nonnull dereferenceable(18) @.str.18) #14
  %.not26 = icmp eq i32 %18, 0
  br i1 %.not26, label %19, label %37

19:                                               ; preds = %17
  %.not27 = icmp eq ptr %1, null
  br i1 %.not27, label %20, label %22

20:                                               ; preds = %19
  %21 = tail call i32 @config_error_nonbool(ptr noundef nonnull %0) #12
  br label %54

22:                                               ; preds = %19
  %23 = tail call i32 @strcasecmp(ptr noundef nonnull readonly %1, ptr noundef nonnull @.str.14) #14
  %.not.i = icmp eq i32 %23, 0
  br i1 %.not.i, label %parse_combine_notes_fn.exit.thread, label %24

24:                                               ; preds = %22
  %25 = tail call i32 @strcasecmp(ptr noundef nonnull readonly %1, ptr noundef nonnull @.str.15) #14
  %.not5.i = icmp eq i32 %25, 0
  br i1 %.not5.i, label %parse_combine_notes_fn.exit.thread, label %26

26:                                               ; preds = %24
  %27 = tail call i32 @strcasecmp(ptr noundef nonnull readonly %1, ptr noundef nonnull @.str.16) #14
  %.not6.i = icmp eq i32 %27, 0
  br i1 %.not6.i, label %parse_combine_notes_fn.exit.thread, label %28

28:                                               ; preds = %26
  %29 = tail call i32 @strcasecmp(ptr noundef nonnull readonly %1, ptr noundef nonnull @.str.9) #14
  %.not7.i = icmp eq i32 %29, 0
  br i1 %.not7.i, label %parse_combine_notes_fn.exit.thread, label %31

parse_combine_notes_fn.exit.thread:               ; preds = %22, %24, %26, %28
  %.0.i.ph = phi ptr [ @combine_notes_concatenate, %26 ], [ @combine_notes_ignore, %24 ], [ @combine_notes_overwrite, %22 ], [ @combine_notes_cat_sort_uniq, %28 ]
  %30 = getelementptr inbounds nuw i8, ptr %3, i64 24
  store ptr %.0.i.ph, ptr %30, align 8, !tbaa !32
  br label %54

31:                                               ; preds = %28
  %32 = getelementptr inbounds nuw i8, ptr %3, i64 24
  store ptr null, ptr %32, align 8, !tbaa !32
  %33 = load i32, ptr @git_gettext_enabled, align 4, !tbaa !26
  %.not4.i = icmp eq i32 %33, 0
  br i1 %.not4.i, label %_.exit, label %34

34:                                               ; preds = %31
  %35 = tail call ptr @dcgettext(ptr noundef null, ptr noundef nonnull @.str.19, i32 noundef 5) #12
  br label %_.exit

_.exit:                                           ; preds = %31, %34
  %.0.i33 = phi ptr [ %35, %34 ], [ @.str.19, %31 ]
  %36 = tail call i32 (ptr, ...) @error(ptr noundef %.0.i33, ptr noundef nonnull %1) #12
  br label %54

37:                                               ; preds = %17, %14
  %38 = getelementptr inbounds nuw i8, ptr %3, i64 40
  %39 = load i32, ptr %38, align 8, !tbaa !34
  %.not29 = icmp eq i32 %39, 0
  br i1 %.not29, label %40, label %54

40:                                               ; preds = %37
  %41 = tail call i32 @strcmp(ptr noundef nonnull dereferenceable(1) %0, ptr noundef nonnull dereferenceable(17) @.str.20) #14
  %.not30 = icmp eq i32 %41, 0
  br i1 %.not30, label %42, label %54

42:                                               ; preds = %40
  %.not31 = icmp eq ptr %1, null
  br i1 %.not31, label %43, label %45

43:                                               ; preds = %42
  %44 = tail call i32 @config_error_nonbool(ptr noundef nonnull %0) #12
  br label %54

45:                                               ; preds = %42
  %46 = tail call i32 @starts_with(ptr noundef nonnull %1, ptr noundef nonnull @.str.21) #12
  %.not32 = icmp eq i32 %46, 0
  br i1 %.not32, label %50, label %47

47:                                               ; preds = %45
  %48 = getelementptr inbounds nuw i8, ptr %3, i64 32
  %49 = load ptr, ptr %48, align 8, !tbaa !33
  tail call void @string_list_add_refs_by_glob(ptr noundef %49, ptr noundef nonnull %1) #12
  br label %54

50:                                               ; preds = %45
  %51 = load i32, ptr @git_gettext_enabled, align 4, !tbaa !26
  %.not4.i34 = icmp eq i32 %51, 0
  br i1 %.not4.i34, label %_.exit36, label %52

52:                                               ; preds = %50
  %53 = tail call ptr @dcgettext(ptr noundef null, ptr noundef nonnull @.str.22, i32 noundef 5) #12
  br label %_.exit36

_.exit36:                                         ; preds = %50, %52
  %.0.i35 = phi ptr [ %53, %52 ], [ @.str.22, %50 ]
  tail call void (ptr, ...) @warning(ptr noundef %.0.i35, ptr noundef nonnull %1) #12
  br label %54

54:                                               ; preds = %parse_combine_notes_fn.exit.thread, %37, %40, %47, %_.exit36, %43, %_.exit, %20, %11
  %.0 = phi i32 [ -1, %43 ], [ 1, %_.exit ], [ -1, %20 ], [ 0, %11 ], [ 0, %_.exit36 ], [ 0, %47 ], [ 0, %40 ], [ 0, %37 ], [ 0, %parse_combine_notes_fn.exit.thread ]
  ret i32 %.0
}